; ModuleID = '35/1610.c'
source_filename = "35/1610.c"
target datalayout = "e-m:e-p270:32:32-p271:32:32-p272:64:64-i64:64-f80:128-n8:16:32:64-S128"
target triple = "x86_64-pc-linux-gnu"

@.str = private unnamed_addr constant [6 x i8] c"%d,%d\00", align 1
@.str.1 = private unnamed_addr constant [3 x i8] c"%d\00", align 1
@.str.2 = private unnamed_addr constant [6 x i8] c"%d+%d\00", align 1
@.str.3 = private unnamed_addr constant [3 x i8] c"No\00", align 1

; Function Attrs: noinline nounwind uwtable
define dso_local i32 @main() #0 {
  %1 = alloca i32, align 4
  %2 = alloca i32, align 4
  %3 = alloca i32, align 4
  %4 = alloca i32, align 4
  %5 = alloca i32, align 4
  %6 = alloca i32, align 4
  %7 = alloca i32, align 4
  %8 = alloca i32, align 4
  %9 = alloca i32, align 4
  %10 = alloca i32, align 4
  %11 = alloca i8*, align 8
  %12 = alloca i64, align 8
  %13 = alloca i64, align 8
  store i32 0, i32* %1, align 4
  store i32 0, i32* %9, align 4
  %14 = call i32 (i8*, ...) @__isoc99_scanf(i8* getelementptr inbounds ([6 x i8], [6 x i8]* @.str, i64 0, i64 0), i32* %2, i32* %3)
  %15 = load i32, i32* %2, align 4
  %16 = zext i32 %15 to i64
  %17 = load i32, i32* %3, align 4
  %18 = zext i32 %17 to i64
  %19 = call i8* @llvm.stacksave()
  store i8* %19, i8** %11, align 8
  %20 = mul nuw i64 %16, %18
  %21 = alloca i32, i64 %20, align 16
  store i64 %16, i64* %12, align 8
  store i64 %18, i64* %13, align 8
  store i32 0, i32* %4, align 4
  br label %22

22:                                               ; preds = %44, %0
  %23 = load i32, i32* %4, align 4
  %24 = load i32, i32* %2, align 4
  %25 = icmp slt i32 %23, %24
  br i1 %25, label %26, label %47

26:                                               ; preds = %22
  store i32 0, i32* %5, align 4
  br label %27

27:                                               ; preds = %40, %26
  %28 = load i32, i32* %5, align 4
  %29 = load i32, i32* %3, align 4
  %30 = icmp slt i32 %28, %29
  br i1 %30, label %31, label %43

31:                                               ; preds = %27
  %32 = load i32, i32* %4, align 4
  %33 = sext i32 %32 to i64
  %34 = mul nsw i64 %33, %18
  %35 = getelementptr inbounds i32, i32* %21, i64 %34
  %36 = load i32, i32* %5, align 4
  %37 = sext i32 %36 to i64
  %38 = getelementptr inbounds i32, i32* %35, i64 %37
  %39 = call i32 (i8*, ...) @__isoc99_scanf(i8* getelementptr inbounds ([3 x i8], [3 x i8]* @.str.1, i64 0, i64 0), i32* %38)
  br label %40

40:                                               ; preds = %31
  %41 = load i32, i32* %5, align 4
  %42 = add nsw i32 %41, 1
  store i32 %42, i32* %5, align 4
  br label %27

43:                                               ; preds = %27
  br label %44

44:                                               ; preds = %43
  %45 = load i32, i32* %4, align 4
  %46 = add nsw i32 %45, 1
  store i32 %46, i32* %4, align 4
  br label %22

47:                                               ; preds = %22
  store i32 0, i32* %4, align 4
  br label %48

48:                                               ; preds = %134, %47
  %49 = load i32, i32* %4, align 4
  %50 = load i32, i32* %2, align 4
  %51 = icmp slt i32 %49, %50
  br i1 %51, label %52, label %137

52:                                               ; preds = %48
  %53 = load i32, i32* %4, align 4
  %54 = sext i32 %53 to i64
  %55 = mul nsw i64 %54, %18
  %56 = getelementptr inbounds i32, i32* %21, i64 %55
  %57 = getelementptr inbounds i32, i32* %56, i64 0
  %58 = load i32, i32* %57, align 4
  store i32 %58, i32* %7, align 4
  store i32 0, i32* %10, align 4
  store i32 1, i32* %5, align 4
  br label %59

59:                                               ; preds = %85, %52
  %60 = load i32, i32* %5, align 4
  %61 = load i32, i32* %3, align 4
  %62 = icmp slt i32 %60, %61
  br i1 %62, label %63, label %88

63:                                               ; preds = %59
  %64 = load i32, i32* %4, align 4
  %65 = sext i32 %64 to i64
  %66 = mul nsw i64 %65, %18
  %67 = getelementptr inbounds i32, i32* %21, i64 %66
  %68 = load i32, i32* %5, align 4
  %69 = sext i32 %68 to i64
  %70 = getelementptr inbounds i32, i32* %67, i64 %69
  %71 = load i32, i32* %70, align 4
  %72 = load i32, i32* %7, align 4
  %73 = icmp sgt i32 %71, %72
  br i1 %73, label %74, label %84

74:                                               ; preds = %63
  %75 = load i32, i32* %4, align 4
  %76 = sext i32 %75 to i64
  %77 = mul nsw i64 %76, %18
  %78 = getelementptr inbounds i32, i32* %21, i64 %77
  %79 = load i32, i32* %5, align 4
  %80 = sext i32 %79 to i64
  %81 = getelementptr inbounds i32, i32* %78, i64 %80
  %82 = load i32, i32* %81, align 4
  store i32 %82, i32* %7, align 4
  %83 = load i32, i32* %5, align 4
  store i32 %83, i32* %10, align 4
  br label %84

84:                                               ; preds = %74, %63
  br label %85

85:                                               ; preds = %84
  %86 = load i32, i32* %5, align 4
  %87 = add nsw i32 %86, 1
  store i32 %87, i32* %5, align 4
  br label %59

88:                                               ; preds = %59
  %89 = mul nsw i64 0, %18
  %90 = getelementptr inbounds i32, i32* %21, i64 %89
  %91 = load i32, i32* %10, align 4
  %92 = sext i32 %91 to i64
  %93 = getelementptr inbounds i32, i32* %90, i64 %92
  %94 = load i32, i32* %93, align 4
  store i32 %94, i32* %8, align 4
  store i32 1, i32* %6, align 4
  br label %95

95:                                               ; preds = %120, %88
  %96 = load i32, i32* %6, align 4
  %97 = load i32, i32* %2, align 4
  %98 = icmp slt i32 %96, %97
  br i1 %98, label %99, label %123

99:                                               ; preds = %95
  %100 = load i32, i32* %6, align 4
  %101 = sext i32 %100 to i64
  %102 = mul nsw i64 %101, %18
  %103 = getelementptr inbounds i32, i32* %21, i64 %102
  %104 = load i32, i32* %10, align 4
  %105 = sext i32 %104 to i64
  %106 = getelementptr inbounds i32, i32* %103, i64 %105
  %107 = load i32, i32* %106, align 4
  %108 = load i32, i32* %8, align 4
  %109 = icmp slt i32 %107, %108
  br i1 %109, label %110, label %119

110:                                              ; preds = %99
  %111 = load i32, i32* %6, align 4
  %112 = sext i32 %111 to i64
  %113 = mul nsw i64 %112, %18
  %114 = getelementptr inbounds i32, i32* %21, i64 %113
  %115 = load i32, i32* %10, align 4
  %116 = sext i32 %115 to i64
  %117 = getelementptr inbounds i32, i32* %114, i64 %116
  %118 = load i32, i32* %117, align 4
  store i32 %118, i32* %8, align 4
  br label %119

119:                                              ; preds = %110, %99
  br label %120

120:                                              ; preds = %119
  %121 = load i32, i32* %6, align 4
  %122 = add nsw i32 %121, 1
  store i32 %122, i32* %6, align 4
  br label %95

123:                                              ; preds = %95
  %124 = load i32, i32* %7, align 4
  %125 = load i32, i32* %8, align 4
  %126 = icmp eq i32 %124, %125
  br i1 %126, label %127, label %133

127:                                              ; preds = %123
  %128 = load i32, i32* %4, align 4
  %129 = load i32, i32* %10, align 4
  %130 = call i32 (i8*, ...) @printf(i8* getelementptr inbounds ([6 x i8], [6 x i8]* @.str.2, i64 0, i64 0), i32 %128, i32 %129)
  %131 = load i32, i32* %9, align 4
  %132 = add nsw i32 %131, 1
  store i32 %132, i32* %9, align 4
  br label %133

133:                                              ; preds = %127, %123
  br label %134

134:                                              ; preds = %133
  %135 = load i32, i32* %4, align 4
  %136 = add nsw i32 %135, 1
  store i32 %136, i32* %4, align 4
  br label %48

137:                                              ; preds = %48
  %138 = load i32, i32* %9, align 4
  %139 = icmp eq i32 %138, 0
  br i1 %139, label %140, label %142

140:                                              ; preds = %137
  %141 = call i32 (i8*, ...) @printf(i8* getelementptr inbounds ([3 x i8], [3 x i8]* @.str.3, i64 0, i64 0))
  br label %142

142:                                              ; preds = %140, %137
  store i32 0, i32* %1, align 4
  %143 = load i8*, i8** %11, align 8
  call void @llvm.stackrestore(i8* %143)
  %144 = load i32, i32* %1, align 4
  ret i32 %144
}

declare dso_local i32 @__isoc99_scanf(i8*, ...) #1

; Function Attrs: nounwind
declare i8* @llvm.stacksave() #2

declare dso_local i32 @printf(i8*, ...) #1

; Function Attrs: nounwind
declare void @llvm.stackrestore(i8*) #2


!llvm.module.flags = !{!0}
!llvm.ident = !{!1}

!0 = !{i32 1, !"wchar_size", i32 4}
!1 = !{!"clang version 10.0.0-4ubuntu1 "}
